; Function Attrs: mustprogress uwtable
define hidden void @_ZN5arith6solver12set_conflictENS_9hint_typeE(ptr noundef nonnull align 8 dereferenceable(1144) %this, i32 noundef %ty) local_unnamed_addr #3 align 2 personality ptr @__gxx_personality_v0 {
entry:
  %core = alloca %class.svector.15, align 8
  store ptr null, ptr %core, align 8
  invoke void @_ZN5arith6solver21set_conflict_or_lemmaENS_9hint_typeERK7svectorIN3sat7literalEjEb(ptr noundef nonnull align 8 dereferenceable(1144) %this, i32 noundef %ty, ptr noundef nonnull align 8 dereferenceable(8) %core, i1 noundef zeroext true)
          to label %_ZN7svectorIN3sat7literalEjED2Ev.exit unwind label %lpad

_ZN7svectorIN3sat7literalEjED2Ev.exit:            ; preds = %entry
  ret void

lpad:                                             ; preds = %entry
  %0 = landingpad { ptr, i32 }
          cleanup
  call void @_ZN7svectorIN3sat7literalEjED2Ev(ptr noundef nonnull align 8 dereferenceable(8) %core) #23
  resume { ptr, i32 } %0
}